target datalayout = "e-m:e-p270:32:32-p271:32:32-p272:64:64-i64:64-i128:128-f80:128-n8:16:32:64-S128"
target triple = "x86_64-unknown-linux-gnu"

%"struct.my_name_space::array2D" = type { i32, i32, ptr }

; Function Attrs: mustprogress uwtable
define dso_local noundef i64 @_ZN13my_name_space18sp_get_needed_sizeERKNS_7array2DE(ptr noundef nonnull align 8 dereferenceable(16) %ar) #0 {
entry:
  %t.addr.i6 = alloca ptr, align 8
  %length.addr.i = alloca i64, align 8
  %t.addr.i = alloca ptr, align 8
  %ar.addr = alloca ptr, align 8
  store ptr %ar, ptr %ar.addr, align 8
  %0 = load ptr, ptr %ar.addr, align 8
  %x = getelementptr inbounds %"struct.my_name_space::array2D", ptr %0, i32 0, i32 0
  store ptr %x, ptr %t.addr.i, align 8
  %mul = mul i64 2, 4
  %1 = load ptr, ptr %ar.addr, align 8
  %p = getelementptr inbounds %"struct.my_name_space::array2D", ptr %1, i32 0, i32 2
  %2 = load ptr, ptr %p, align 8
  %3 = load ptr, ptr %ar.addr, align 8
  %x1 = getelementptr inbounds %"struct.my_name_space::array2D", ptr %3, i32 0, i32 0
  %4 = load i32, ptr %x1, align 8
  %conv = zext i32 %4 to i64
  %mul2 = mul i64 1, %conv
  %5 = load ptr, ptr %ar.addr, align 8
  %y = getelementptr inbounds %"struct.my_name_space::array2D", ptr %5, i32 0, i32 1
  %6 = load i32, ptr %y, align 4
  %conv3 = zext i32 %6 to i64
  %mul4 = mul i64 %mul2, %conv3
  store ptr %2, ptr %t.addr.i6, align 8
  store i64 %mul4, ptr %length.addr.i, align 8
  %7 = load i64, ptr %length.addr.i, align 8
  %mul.i = mul i64 4, %7
  %add = add i64 %mul, %mul.i
  ret i64 %add
}