; Function Attrs: mustprogress nofree norecurse nosync nounwind willreturn memory(argmem: read) uwtable
define dso_local noundef range(i64 8, 5) i64 @_ZN13my_name_space18sp_get_needed_sizeERKNS_7array2DE(ptr noundef nonnull readonly align 8 captures(none) dereferenceable(16) %ar) local_unnamed_addr #0 {
entry:
  %0 = load i32, ptr %ar, align 8
  %conv = zext i32 %0 to i64
  %y = getelementptr inbounds nuw i8, ptr %ar, i64 4
  %1 = load i32, ptr %y, align 4
  %conv3 = zext i32 %1 to i64
  %mul4 = shl nuw nsw i64 %conv, 2
  %mul.i = mul i64 %mul4, %conv3
  %add = add i64 %mul.i, 8
  ret i64 %add
}